target datalayout = "e-m:e-p270:32:32-p271:32:32-p272:64:64-i64:64-i128:128-f80:128-n8:16:32:64-S128"
target triple = "x86_64-pc-linux-gnu"

%"class.simdjson::implementation.base" = type <{ ptr, %"class.std::basic_string_view", %"class.std::basic_string_view", i32 }>
%"class.std::basic_string_view" = type { i64, ptr }
%"class.simdjson::internal::detect_best_supported_implementation_on_first_use" = type { %"class.simdjson::implementation.base", [4 x i8] }
%"class.simdjson::internal::atomic_ptr" = type { %"struct.std::atomic" }
%"struct.std::atomic" = type { %"struct.std::__atomic_base" }
%"struct.std::__atomic_base" = type { ptr }
%"class.simdjson::implementation" = type <{ ptr, %"class.std::basic_string_view", %"class.std::basic_string_view", i32, [4 x i8] }>

@_ZZN8simdjson25get_active_implementationEvE59detect_best_supported_implementation_on_first_use_singleton = internal global %"class.simdjson::internal::detect_best_supported_implementation_on_first_use" zeroinitializer, align 8
@_ZGVZN8simdjson25get_active_implementationEvE59detect_best_supported_implementation_on_first_use_singleton = internal global i64 0, align 8
@_ZZN8simdjson25get_active_implementationEvE21active_implementation = internal global %"class.simdjson::internal::atomic_ptr" zeroinitializer, align 8
@_ZGVZN8simdjson25get_active_implementationEvE21active_implementation = internal global i64 0, align 8
@.str.43 = private unnamed_addr constant [24 x i8] c"best_supported_detector\00", align 1
@.str.44 = private unnamed_addr constant [54 x i8] c"Detects the best supported implementation and sets it\00", align 1

; Function Attrs: mustprogress nounwind uwtable
define linkonce_odr dso_local noundef i32 @_ZStanSt12memory_orderSt23__memory_order_modifier(i32 noundef %0, i32 noundef %1) #2 comdat {
  %3 = alloca i32, align 4
  %4 = alloca i32, align 4
  store i32 %0, ptr %3, align 4, !tbaa !498
  store i32 %1, ptr %4, align 4, !tbaa !500
  %5 = load i32, ptr %3, align 4, !tbaa !498
  %6 = load i32, ptr %4, align 4, !tbaa !500
  %7 = and i32 %5, %6
  ret i32 %7
}

; Function Attrs: mustprogress nounwind uwtable
define linkonce_odr dso_local void @_ZNSt13__atomic_baseIPKN8simdjson14implementationEEC2ES3_(ptr noundef nonnull align 8 dereferenceable(8) %0, ptr noundef %1) unnamed_addr #2 comdat align 2 {
  %3 = alloca ptr, align 8
  %4 = alloca ptr, align 8
  store ptr %0, ptr %3, align 8, !tbaa !496
  store ptr %1, ptr %4, align 8, !tbaa !60
  %5 = load ptr, ptr %3, align 8
  %6 = getelementptr inbounds nuw %"struct.std::__atomic_base", ptr %5, i32 0, i32 0
  %7 = load ptr, ptr %4, align 8, !tbaa !60
  store ptr %7, ptr %6, align 8, !tbaa !502
  ret void
}

; Function Attrs: mustprogress nounwind uwtable
define linkonce_odr dso_local noundef i64 @_ZNSt11char_traitsIcE6lengthEPKc(ptr noundef %0) #2 comdat align 2 {
  %2 = alloca ptr, align 8
  store ptr %0, ptr %2, align 8, !tbaa !4
  %3 = load ptr, ptr %2, align 8, !tbaa !4
  %4 = call i64 @strlen(ptr noundef %3) #10
  ret i64 %4
}

; Function Attrs: alwaysinline mustprogress nounwind uwtable
define linkonce_odr dso_local noundef ptr @_ZNKSt13__atomic_baseIPKN8simdjson14implementationEE4loadESt12memory_order(ptr noundef nonnull align 8 dereferenceable(8) %0, i32 noundef %1) #11 comdat align 2 {
  %3 = alloca ptr, align 8
  %4 = alloca i32, align 4
  %5 = alloca i32, align 4
  %6 = alloca ptr, align 8
  store ptr %0, ptr %3, align 8, !tbaa !496
  store i32 %1, ptr %4, align 4, !tbaa !498
  %7 = load ptr, ptr %3, align 8
  call void @llvm.lifetime.start.p0(i64 4, ptr %5) #10
  %8 = load i32, ptr %4, align 4, !tbaa !498
  %9 = call noundef i32 @_ZStanSt12memory_orderSt23__memory_order_modifier(i32 noundef %8, i32 noundef 65535)
  store i32 %9, ptr %5, align 4, !tbaa !498
  br label %10

10:                                               ; preds = %2
  br label %11

11:                                               ; preds = %10
  br label %12

12:                                               ; preds = %11
  br label %13

13:                                               ; preds = %12
  br label %14

14:                                               ; preds = %13
  br label %15

15:                                               ; preds = %14
  %16 = getelementptr inbounds nuw %"struct.std::__atomic_base", ptr %7, i32 0, i32 0
  %17 = load i32, ptr %4, align 4, !tbaa !498
  switch i32 %17, label %18 [
    i32 1, label %20
    i32 2, label %20
    i32 5, label %22
  ]

18:                                               ; preds = %15
  %19 = load atomic i64, ptr %16 monotonic, align 8
  store i64 %19, ptr %6, align 8
  br label %24

20:                                               ; preds = %15, %15
  %21 = load atomic i64, ptr %16 acquire, align 8
  store i64 %21, ptr %6, align 8
  br label %24

22:                                               ; preds = %15
  %23 = load atomic i64, ptr %16 seq_cst, align 8
  store i64 %23, ptr %6, align 8
  br label %24

24:                                               ; preds = %22, %20, %18
  %25 = load ptr, ptr %6, align 8, !tbaa !60
  call void @llvm.lifetime.end.p0(i64 4, ptr %5) #10
  ret ptr %25
}

; Function Attrs: mustprogress nounwind uwtable
define linkonce_odr dso_local void @_ZNSt6atomicIPKN8simdjson14implementationEEC2ES3_(ptr noundef nonnull align 8 dereferenceable(8) %0, ptr noundef %1) unnamed_addr #2 comdat align 2 {
  %3 = alloca ptr, align 8
  %4 = alloca ptr, align 8
  store ptr %0, ptr %3, align 8, !tbaa !494
  store ptr %1, ptr %4, align 8, !tbaa !60
  %5 = load ptr, ptr %3, align 8
  %6 = getelementptr inbounds nuw %"struct.std::atomic", ptr %5, i32 0, i32 0
  %7 = load ptr, ptr %4, align 8, !tbaa !60
  call void @_ZNSt13__atomic_baseIPKN8simdjson14implementationEEC2ES3_(ptr noundef nonnull align 8 dereferenceable(8) %6, ptr noundef %7) #10
  ret void
}

; Function Attrs: alwaysinline mustprogress nounwind uwtable
define linkonce_odr dso_local void @_ZN8simdjson14implementationC2ESt17basic_string_viewIcSt11char_traitsIcEES4_j(ptr noundef nonnull align 8 dereferenceable(44) %0, i64 %1, ptr %2, i64 %3, ptr %4, i32 noundef %5) unnamed_addr #11 comdat align 2 {
  %7 = alloca %"class.std::basic_string_view", align 8
  %8 = alloca %"class.std::basic_string_view", align 8
  %9 = alloca ptr, align 8
  %10 = alloca i32, align 4
  %11 = getelementptr inbounds nuw { i64, ptr }, ptr %7, i32 0, i32 0
  store i64 %1, ptr %11, align 8
  %12 = getelementptr inbounds nuw { i64, ptr }, ptr %7, i32 0, i32 1
  store ptr %2, ptr %12, align 8
  %13 = getelementptr inbounds nuw { i64, ptr }, ptr %8, i32 0, i32 0
  store i64 %3, ptr %13, align 8
  %14 = getelementptr inbounds nuw { i64, ptr }, ptr %8, i32 0, i32 1
  store ptr %4, ptr %14, align 8
  store ptr %0, ptr %9, align 8, !tbaa !60
  store i32 %5, ptr %10, align 4, !tbaa !16
  %15 = load ptr, ptr %9, align 8
  store ptr getelementptr inbounds inrange(-16, 48) ({ [8 x ptr] }, ptr @_ZTVN8simdjson14implementationE, i32 0, i32 0, i32 2), ptr %15, align 8, !tbaa !62
  %16 = getelementptr inbounds nuw %"class.simdjson::implementation", ptr %15, i32 0, i32 1
  call void @llvm.memcpy.p0.p0.i64(ptr align 8 %16, ptr align 8 %7, i64 16, i1 false), !tbaa.struct !80
  %17 = getelementptr inbounds nuw %"class.simdjson::implementation", ptr %15, i32 0, i32 2
  call void @llvm.memcpy.p0.p0.i64(ptr align 8 %17, ptr align 8 %8, i64 16, i1 false), !tbaa.struct !80
  %18 = getelementptr inbounds nuw %"class.simdjson::implementation", ptr %15, i32 0, i32 3
  %19 = load i32, ptr %10, align 4, !tbaa !16
  store i32 %19, ptr %18, align 8, !tbaa !217
  ret void
}

; Function Attrs: mustprogress nounwind uwtable
define linkonce_odr dso_local void @_ZNSt17basic_string_viewIcSt11char_traitsIcEEC2EPKc(ptr noundef nonnull align 8 dereferenceable(16) %0, ptr noundef nonnull %1) unnamed_addr #2 comdat align 2 personality ptr @__gxx_personality_v0 {
  %3 = alloca ptr, align 8
  %4 = alloca ptr, align 8
  store ptr %0, ptr %3, align 8, !tbaa !78
  store ptr %1, ptr %4, align 8, !tbaa !4
  %5 = load ptr, ptr %3, align 8
  %6 = getelementptr inbounds nuw %"class.std::basic_string_view", ptr %5, i32 0, i32 0
  %7 = load ptr, ptr %4, align 8, !tbaa !4
  %8 = invoke noundef i64 @_ZNSt11char_traitsIcE6lengthEPKc(ptr noundef %7)
          to label %9 unwind label %12

9:                                                ; preds = %2
  store i64 %8, ptr %6, align 8, !tbaa !81
  %10 = getelementptr inbounds nuw %"class.std::basic_string_view", ptr %5, i32 0, i32 1
  %11 = load ptr, ptr %4, align 8, !tbaa !4
  store ptr %11, ptr %10, align 8, !tbaa !83
  ret void

12:                                               ; preds = %2
  %13 = landingpad { ptr, i32 }
          catch ptr null
  %14 = extractvalue { ptr, i32 } %13, 0
  call void @__clang_call_terminate(ptr %14) #56
  unreachable
}

; Function Attrs: mustprogress nounwind uwtable
define linkonce_odr dso_local noundef ptr @_ZNKSt6atomicIPKN8simdjson14implementationEE4loadESt12memory_order(ptr noundef nonnull align 8 dereferenceable(8) %0, i32 noundef %1) #2 comdat align 2 {
  %3 = alloca ptr, align 8
  %4 = alloca i32, align 4
  store ptr %0, ptr %3, align 8, !tbaa !494
  store i32 %1, ptr %4, align 4, !tbaa !498
  %5 = load ptr, ptr %3, align 8
  %6 = getelementptr inbounds nuw %"struct.std::atomic", ptr %5, i32 0, i32 0
  %7 = load i32, ptr %4, align 4, !tbaa !498
  %8 = call noundef ptr @_ZNKSt13__atomic_baseIPKN8simdjson14implementationEE4loadESt12memory_order(ptr noundef nonnull align 8 dereferenceable(8) %6, i32 noundef %7) #10
  ret ptr %8
}

; Function Attrs: mustprogress nounwind uwtable
define linkonce_odr dso_local void @_ZN8simdjson8internal10atomic_ptrIKNS_14implementationEEC2EPS3_(ptr noundef nonnull align 8 dereferenceable(8) %0, ptr noundef %1) unnamed_addr #2 comdat align 2 {
  %3 = alloca ptr, align 8
  %4 = alloca ptr, align 8
  store ptr %0, ptr %3, align 8, !tbaa !84
  store ptr %1, ptr %4, align 8, !tbaa !60
  %5 = load ptr, ptr %3, align 8
  %6 = getelementptr inbounds nuw %"class.simdjson::internal::atomic_ptr", ptr %5, i32 0, i32 0
  %7 = load ptr, ptr %4, align 8, !tbaa !60
  call void @_ZNSt6atomicIPKN8simdjson14implementationEEC2ES3_(ptr noundef nonnull align 8 dereferenceable(8) %6, ptr noundef %7) #10
  ret void
}

; Function Attrs: alwaysinline mustprogress nounwind uwtable
define linkonce_odr dso_local void @_ZN8simdjson8internal49detect_best_supported_implementation_on_first_useC2Ev(ptr noundef nonnull align 8 dereferenceable(48) %0) unnamed_addr #11 comdat align 2 {
  %2 = alloca ptr, align 8
  %3 = alloca %"class.std::basic_string_view", align 8
  %4 = alloca %"class.std::basic_string_view", align 8
  store ptr %0, ptr %2, align 8, !tbaa !76
  %5 = load ptr, ptr %2, align 8
  call void @_ZNSt17basic_string_viewIcSt11char_traitsIcEEC2EPKc(ptr noundef nonnull align 8 dereferenceable(16) %3, ptr noundef @.str.43) #10
  call void @_ZNSt17basic_string_viewIcSt11char_traitsIcEEC2EPKc(ptr noundef nonnull align 8 dereferenceable(16) %4, ptr noundef @.str.44) #10
  %6 = getelementptr inbounds nuw { i64, ptr }, ptr %3, i32 0, i32 0
  %7 = load i64, ptr %6, align 8
  %8 = getelementptr inbounds nuw { i64, ptr }, ptr %3, i32 0, i32 1
  %9 = load ptr, ptr %8, align 8
  %10 = getelementptr inbounds nuw { i64, ptr }, ptr %4, i32 0, i32 0
  %11 = load i64, ptr %10, align 8
  %12 = getelementptr inbounds nuw { i64, ptr }, ptr %4, i32 0, i32 1
  %13 = load ptr, ptr %12, align 8
  call void @_ZN8simdjson14implementationC2ESt17basic_string_viewIcSt11char_traitsIcEES4_j(ptr noundef nonnull align 8 dereferenceable(44) %5, i64 %7, ptr %9, i64 %11, ptr %13, i32 noundef 0)
  store ptr getelementptr inbounds inrange(-16, 48) ({ [8 x ptr] }, ptr @_ZTVN8simdjson8internal49detect_best_supported_implementation_on_first_useE, i32 0, i32 0, i32 2), ptr %5, align 8, !tbaa !62
  ret void
}

; Function Attrs: noinline noreturn nounwind uwtable
define linkonce_odr hidden void @__clang_call_terminate(ptr noundef %0) #5 comdat {
  %2 = call ptr @__cxa_begin_catch(ptr %0) #10
  call void @_ZSt9terminatev() #56
  unreachable
}

; Function Attrs: mustprogress nounwind uwtable
define linkonce_odr dso_local noundef ptr @_ZN8simdjson8internal10atomic_ptrIKNS_14implementationEEptEv(ptr noundef nonnull align 8 dereferenceable(8) %0) #2 comdat align 2 {
  %2 = alloca ptr, align 8
  store ptr %0, ptr %2, align 8, !tbaa !84
  %3 = load ptr, ptr %2, align 8
  %4 = getelementptr inbounds nuw %"class.simdjson::internal::atomic_ptr", ptr %3, i32 0, i32 0
  %5 = call noundef ptr @_ZNKSt6atomicIPKN8simdjson14implementationEE4loadESt12memory_order(ptr noundef nonnull align 8 dereferenceable(8) %4, i32 noundef 5) #10
  ret ptr %5
}

; Function Attrs: mustprogress uwtable
define dso_local noundef nonnull align 8 dereferenceable(8) ptr @_ZN8simdjson25get_active_implementationEv() #0 personality ptr @__gxx_personality_v0 {
  %1 = alloca ptr, align 8
  %2 = alloca i32, align 4
  %3 = load atomic i8, ptr @_ZGVZN8simdjson25get_active_implementationEvE59detect_best_supported_implementation_on_first_use_singleton acquire, align 8
  %4 = icmp eq i8 %3, 0
  br i1 %4, label %5, label %10, !prof !64

5:                                                ; preds = %0
  %6 = call i32 @__cxa_guard_acquire(ptr @_ZGVZN8simdjson25get_active_implementationEvE59detect_best_supported_implementation_on_first_use_singleton) #10
  %7 = icmp ne i32 %6, 0
  br i1 %7, label %8, label %10

8:                                                ; preds = %5
  call void @_ZN8simdjson8internal49detect_best_supported_implementation_on_first_useC2Ev(ptr noundef nonnull align 8 dereferenceable(48) @_ZZN8simdjson25get_active_implementationEvE59detect_best_supported_implementation_on_first_use_singleton) #10
  %9 = call ptr @llvm.invariant.start.p0(i64 48, ptr @_ZZN8simdjson25get_active_implementationEvE59detect_best_supported_implementation_on_first_use_singleton)
  call void @__cxa_guard_release(ptr @_ZGVZN8simdjson25get_active_implementationEvE59detect_best_supported_implementation_on_first_use_singleton) #10
  br label %10

10:                                               ; preds = %8, %5, %0
  %11 = load atomic i8, ptr @_ZGVZN8simdjson25get_active_implementationEvE21active_implementation acquire, align 8
  %12 = icmp eq i8 %11, 0
  br i1 %12, label %13, label %18, !prof !64

13:                                               ; preds = %10
  %14 = call i32 @__cxa_guard_acquire(ptr @_ZGVZN8simdjson25get_active_implementationEvE21active_implementation) #10
  %15 = icmp ne i32 %14, 0
  br i1 %15, label %16, label %18

16:                                               ; preds = %13
  invoke void @_ZN8simdjson8internal10atomic_ptrIKNS_14implementationEEC2EPS3_(ptr noundef nonnull align 8 dereferenceable(8) @_ZZN8simdjson25get_active_implementationEvE21active_implementation, ptr noundef @_ZZN8simdjson25get_active_implementationEvE59detect_best_supported_implementation_on_first_use_singleton)
          to label %17 unwind label %19

17:                                               ; preds = %16
  call void @__cxa_guard_release(ptr @_ZGVZN8simdjson25get_active_implementationEvE21active_implementation) #10
  br label %18

18:                                               ; preds = %17, %13, %10
  ret ptr @_ZZN8simdjson25get_active_implementationEvE21active_implementation

19:                                               ; preds = %16
  %20 = landingpad { ptr, i32 }
          cleanup
  %21 = extractvalue { ptr, i32 } %20, 0
  store ptr %21, ptr %1, align 8
  %22 = extractvalue { ptr, i32 } %20, 1
  store i32 %22, ptr %2, align 4
  call void @__cxa_guard_abort(ptr @_ZGVZN8simdjson25get_active_implementationEvE21active_implementation) #10
  br label %23

23:                                               ; preds = %19
  %24 = load ptr, ptr %1, align 8
  %25 = load i32, ptr %2, align 4
  %26 = insertvalue { ptr, i32 } poison, ptr %24, 0
  %27 = insertvalue { ptr, i32 } %26, i32 %25, 1
  resume { ptr, i32 } %27
}

; Function Attrs: mustprogress nounwind uwtable
define dso_local noundef i32 @_ZN8simdjson6minifyEPKcmPcRm(ptr noundef %0, i64 noundef %1, ptr noundef %2, ptr noundef nonnull align 8 dereferenceable(8) %3) #2 personality ptr @__gxx_personality_v0 {
  %5 = alloca ptr, align 8
  %6 = alloca i64, align 8
  %7 = alloca ptr, align 8
  %8 = alloca ptr, align 8
  store ptr %0, ptr %5, align 8, !tbaa !4
  store i64 %1, ptr %6, align 8, !tbaa !21
  store ptr %2, ptr %7, align 8, !tbaa !4
  store ptr %3, ptr %8, align 8, !tbaa !86
  %9 = invoke noundef nonnull align 8 dereferenceable(8) ptr @_ZN8simdjson25get_active_implementationEv()
          to label %10 unwind label %21

10:                                               ; preds = %4
  %11 = invoke noundef ptr @_ZN8simdjson8internal10atomic_ptrIKNS_14implementationEEptEv(ptr noundef nonnull align 8 dereferenceable(8) %9)
          to label %12 unwind label %21

12:                                               ; preds = %10
  %13 = load ptr, ptr %5, align 8, !tbaa !4
  %14 = load i64, ptr %6, align 8, !tbaa !21
  %15 = load ptr, ptr %7, align 8, !tbaa !4
  %16 = load ptr, ptr %8, align 8, !tbaa !86
  %17 = load ptr, ptr %11, align 8, !tbaa !62
  %18 = getelementptr inbounds ptr, ptr %17, i64 4
  %19 = load ptr, ptr %18, align 8
  %20 = call noundef i32 %19(ptr noundef nonnull align 8 dereferenceable(44) %11, ptr noundef %13, i64 noundef %14, ptr noundef %15, ptr noundef nonnull align 8 dereferenceable(8) %16) #10
  ret i32 %20

21:                                               ; preds = %10, %4
  %22 = landingpad { ptr, i32 }
          catch ptr null
  %23 = extractvalue { ptr, i32 } %22, 0
  call void @__clang_call_terminate(ptr %23) #56
  unreachable
}