; Function Attrs: mustprogress nounwind uwtable
define dso_local noundef i32 @_ZN8simdjson6minifyEPKcmPcRm(ptr noundef %0, i64 noundef %1, ptr noundef %2, ptr noundef nonnull align 8 dereferenceable(8) %3) local_unnamed_addr #6 personality ptr @__gxx_personality_v0 {
  %5 = load atomic i8, ptr @_ZGVZN8simdjson25get_active_implementationEvE59detect_best_supported_implementation_on_first_use_singleton acquire, align 8
  %6 = icmp eq i8 %5, 0
  br i1 %6, label %7, label %11, !prof !51

7:                                                ; preds = %4
  %8 = tail call i32 @__cxa_guard_acquire(ptr nonnull @_ZGVZN8simdjson25get_active_implementationEvE59detect_best_supported_implementation_on_first_use_singleton) #45
  %.not.i = icmp eq i32 %8, 0
  br i1 %.not.i, label %11, label %9

9:                                                ; preds = %7
  store i64 23, ptr getelementptr inbounds nuw (i8, ptr @_ZZN8simdjson25get_active_implementationEvE59detect_best_supported_implementation_on_first_use_singleton, i64 8), align 8, !tbaa !11
  store ptr @.str.43, ptr getelementptr inbounds nuw (i8, ptr @_ZZN8simdjson25get_active_implementationEvE59detect_best_supported_implementation_on_first_use_singleton, i64 16), align 8, !tbaa !18
  store i64 53, ptr getelementptr inbounds nuw (i8, ptr @_ZZN8simdjson25get_active_implementationEvE59detect_best_supported_implementation_on_first_use_singleton, i64 24), align 8, !tbaa !11
  store ptr @.str.44, ptr getelementptr inbounds nuw (i8, ptr @_ZZN8simdjson25get_active_implementationEvE59detect_best_supported_implementation_on_first_use_singleton, i64 32), align 8, !tbaa !18
  store i32 0, ptr getelementptr inbounds nuw (i8, ptr @_ZZN8simdjson25get_active_implementationEvE59detect_best_supported_implementation_on_first_use_singleton, i64 40), align 8, !tbaa !52
  store ptr getelementptr inbounds nuw inrange(-16, 48) (i8, ptr @_ZTVN8simdjson8internal49detect_best_supported_implementation_on_first_useE, i64 16), ptr @_ZZN8simdjson25get_active_implementationEvE59detect_best_supported_implementation_on_first_use_singleton, align 8, !tbaa !47
  %10 = tail call ptr @llvm.invariant.start.p0(i64 48, ptr nonnull @_ZZN8simdjson25get_active_implementationEvE59detect_best_supported_implementation_on_first_use_singleton)
  tail call void @__cxa_guard_release(ptr nonnull @_ZGVZN8simdjson25get_active_implementationEvE59detect_best_supported_implementation_on_first_use_singleton) #45
  br label %11

11:                                               ; preds = %9, %7, %4
  %12 = load atomic i8, ptr @_ZGVZN8simdjson25get_active_implementationEvE21active_implementation acquire, align 8
  %13 = icmp eq i8 %12, 0
  br i1 %13, label %14, label %_ZN8simdjson25get_active_implementationEv.exit, !prof !51

14:                                               ; preds = %11
  %15 = tail call i32 @__cxa_guard_acquire(ptr nonnull @_ZGVZN8simdjson25get_active_implementationEvE21active_implementation) #45
  %.not1.i = icmp eq i32 %15, 0
  br i1 %.not1.i, label %_ZN8simdjson25get_active_implementationEv.exit, label %16

16:                                               ; preds = %14
  store ptr @_ZZN8simdjson25get_active_implementationEvE59detect_best_supported_implementation_on_first_use_singleton, ptr @_ZZN8simdjson25get_active_implementationEvE21active_implementation, align 8, !tbaa !64
  tail call void @__cxa_guard_release(ptr nonnull @_ZGVZN8simdjson25get_active_implementationEvE21active_implementation) #45
  br label %_ZN8simdjson25get_active_implementationEv.exit

_ZN8simdjson25get_active_implementationEv.exit:   ; preds = %16, %14, %11
  %17 = load atomic i64, ptr @_ZZN8simdjson25get_active_implementationEvE21active_implementation seq_cst, align 8
  %.0.i.i.i = inttoptr i64 %17 to ptr
  %18 = load ptr, ptr %.0.i.i.i, align 8, !tbaa !47
  %19 = getelementptr inbounds nuw i8, ptr %18, i64 32
  %20 = load ptr, ptr %19, align 8
  %21 = tail call noundef i32 %20(ptr noundef nonnull align 8 dereferenceable(44) %.0.i.i.i, ptr noundef %0, i64 noundef %1, ptr noundef %2, ptr noundef nonnull align 8 dereferenceable(8) %3) #45
  ret i32 %21
}